	.file	"main.c"
__SP_H__ = 0x3e
__SP_L__ = 0x3d
__SREG__ = 0x3f
__tmp_reg__ = 0
__zero_reg__ = 1
	.text
.Ltext0:
	.cfi_sections	.debug_frame
	.section	.text.set_mottors.part.0,"ax",@progbits
	.type	set_mottors.part.0, @function
set_mottors.part.0:
.LFB39:
	.file 1 ".././main.c"
	.loc 1 251 0
	.cfi_startproc
/* prologue: function */
/* frame size = 0 */
/* stack size = 0 */
.L__stack_usage = 0
.LVL0:
	.loc 1 254 0
	cbi 0x4,3
	.loc 1 255 0
	in r24,0xa
	andi r24,lo8(-105)
	out 0xa,r24
	.loc 1 259 0
/* #APP */
 ;  259 ".././main.c" 1
	nop
	nop
	
 ;  0 "" 2
/* #NOAPP */
	ret
	.cfi_endproc
.LFE39:
	.size	set_mottors.part.0, .-set_mottors.part.0
	.section	.text._pololu_atmel_studio_6_workaround,"ax",@progbits
	.type	_pololu_atmel_studio_6_workaround, @function
_pololu_atmel_studio_6_workaround:
.LFB27:
	.file 2 "e:\\tools\\atmel\\studio\\7.0\\toolchain\\avr8\\avr8-gnu-toolchain\\avr\\include\\pololu\\workaround.h"
	.loc 2 10 0
	.cfi_startproc
/* prologue: function */
/* frame size = 0 */
/* stack size = 0 */
.L__stack_usage = 0
	.loc 2 12 0
	lds r24,w.2154
	subi r24,lo8(-(1))
	sts w.2154,r24
	ret
	.cfi_endproc
.LFE27:
	.size	_pololu_atmel_studio_6_workaround, .-_pololu_atmel_studio_6_workaround
	.section	.text.test_temperature_sensor,"ax",@progbits
.global	test_temperature_sensor
	.type	test_temperature_sensor, @function
test_temperature_sensor:
.LFB30:
	.loc 1 82 0
	.cfi_startproc
/* prologue: function */
/* frame size = 0 */
/* stack size = 0 */
.L__stack_usage = 0
	ret
	.cfi_endproc
.LFE30:
	.size	test_temperature_sensor, .-test_temperature_sensor
	.section	.text.init_test_temperature_sensor,"ax",@progbits
.global	init_test_temperature_sensor
	.type	init_test_temperature_sensor, @function
init_test_temperature_sensor:
.LFB31:
	.loc 1 121 0
	.cfi_startproc
/* prologue: function */
/* frame size = 0 */
/* stack size = 0 */
.L__stack_usage = 0
	.loc 1 123 0
	ldi r30,lo8(124)
	ldi r31,0
	ldi r24,lo8(-64)
	st Z,r24
	.loc 1 125 0
	ld r24,Z
	ori r24,lo8(8)
	st Z,r24
	.loc 1 128 0
	ldi r30,lo8(122)
	ldi r31,0
	ld r24,Z
	ori r24,lo8(7)
	st Z,r24
	.loc 1 131 0
	ld r24,Z
	ori r24,lo8(-128)
	st Z,r24
	ret
	.cfi_endproc
.LFE31:
	.size	init_test_temperature_sensor, .-init_test_temperature_sensor
	.section	.rodata.str1.1,"aMS",@progbits,1
.LC0:
	.string	"%d"
.LC1:
	.string	"Test 1 ADC"
.LC2:
	.string	" times"
.LC3:
	.string	"loop "
	.section	.text.test_potentiometer_read_8_bit,"ax",@progbits
.global	test_potentiometer_read_8_bit
	.type	test_potentiometer_read_8_bit, @function
test_potentiometer_read_8_bit:
.LFB32:
	.loc 1 134 0
	.cfi_startproc
	push r16
.LCFI0:
	.cfi_def_cfa_offset 3
	.cfi_offset 16, -2
	push r17
.LCFI1:
	.cfi_def_cfa_offset 4
	.cfi_offset 17, -3
	push r28
.LCFI2:
	.cfi_def_cfa_offset 5
	.cfi_offset 28, -4
	push r29
.LCFI3:
	.cfi_def_cfa_offset 6
	.cfi_offset 29, -5
	in r28,__SP_L__
	in r29,__SP_H__
.LCFI4:
	.cfi_def_cfa_register 28
	sbiw r28,11
.LCFI5:
	.cfi_def_cfa_offset 17
	in __tmp_reg__,__SREG__
	cli
	out __SP_H__,r29
	out __SREG__,__tmp_reg__
	out __SP_L__,r28
/* prologue: function */
/* frame size = 11 */
/* stack size = 15 */
.L__stack_usage = 15
	.loc 1 136 0
	push __zero_reg__
	ldi r24,lo8(5)
	push r24
	ldi r24,lo8(.LC0)
	ldi r25,hi8(.LC0)
	push r25
	push r24
	movw r16,r28
	subi r16,-1
	sbci r17,-1
	push r17
	push r16
	call sprintf
.LVL1:
	.loc 1 137 0
	call clear
.LVL2:
	.loc 1 138 0
	ldi r24,lo8(50)
	ldi r25,0
	call delay_ms
.LVL3:
	.loc 1 139 0
	ldi r24,lo8(.LC1)
	ldi r25,hi8(.LC1)
	call print
.LVL4:
	.loc 1 140 0
	ldi r22,lo8(1)
	ldi r24,0
	call lcd_goto_xy
.LVL5:
	.loc 1 141 0
	movw r26,r16
	0:
	ld __tmp_reg__,X+
	tst __tmp_reg__
	brne 0b
	sbiw r26,1
	ldi r24,lo8(7)
	ldi r30,lo8(.LC2)
	ldi r31,hi8(.LC2)
	0:
	ld r0,Z+
	st X+,r0
	dec r24
	brne 0b
	movw r24,r16
	call print
.LVL6:
.LBB19:
.LBB20:
	.loc 1 180 0
	ldi r24,lo8(96)
	sts 124,r24
	.loc 1 182 0
	lds r24,124
	ori r24,lo8(7)
	sts 124,r24
	.loc 1 185 0
	lds r24,122
	ori r24,lo8(5)
	sts 122,r24
	.loc 1 188 0
	lds r24,122
	ori r24,lo8(-128)
	sts 122,r24
.LBE20:
.LBE19:
	.loc 1 144 0
	ldi r24,lo8(-24)
	ldi r25,lo8(3)
	call delay_ms
.LVL7:
	.loc 1 146 0
	std Y+11,__zero_reg__
.LVL8:
	.loc 1 151 0
	lds r24,122
	ori r24,lo8(64)
	sts 122,r24
	.loc 1 153 0
	ldd r17,Y+11
	pop __tmp_reg__
	pop __tmp_reg__
	pop __tmp_reg__
	pop __tmp_reg__
	pop __tmp_reg__
	pop __tmp_reg__
	cpi r17,lo8(5)
	brlo .L15
	rjmp .L7
.L11:
	.loc 1 155 0
/* #APP */
 ;  155 ".././main.c" 1
	nop
	nop
	nop
	nop
	nop
	nop
	nop
	nop
	nop
	nop
	nop
	nop
	nop
	nop
	nop
	nop
	
 ;  0 "" 2
/* #NOAPP */
.L15:
	.loc 1 154 0
	lds r24,122
	.loc 1 154 0
	sbrc r24,6
	rjmp .L11
	.loc 1 161 0
	call clear
.LVL9:
	.loc 1 162 0
	ldi r24,lo8(50)
	ldi r25,0
	call delay_ms
.LVL10:
	.loc 1 163 0
	ldi r22,0
	ldi r24,0
	call lcd_goto_xy
.LVL11:
	.loc 1 164 0
	lds r22,121
	.loc 1 164 0
	ldi r23,0
	ldi r24,0
	ldi r25,0
	call print_long
.LVL12:
	.loc 1 165 0
	ldi r22,lo8(1)
	ldi r24,0
	call lcd_goto_xy
.LVL13:
	.loc 1 166 0
	movw r22,r28
	subi r22,-11
	sbci r23,-1
	ldi r24,lo8(.LC3)
	ldi r25,hi8(.LC3)
	call strcat
.LVL14:
	call print
.LVL15:
	.loc 1 167 0
	subi r17,lo8(-(1))
	std Y+11,r17
	.loc 1 168 0
	ldi r24,lo8(-48)
	ldi r25,lo8(7)
	call delay_ms
.LVL16:
	.loc 1 171 0
	lds r24,122
	ori r24,lo8(64)
	sts 122,r24
	.loc 1 153 0
	ldd r17,Y+11
	cpi r17,lo8(5)
	brlo .L15
.L7:
	.loc 1 175 0
	lds r24,122
	sts 122,r24
/* epilogue start */
	.loc 1 176 0
	adiw r28,11
.LVL17:
	in __tmp_reg__,__SREG__
	cli
	out __SP_H__,r29
	out __SREG__,__tmp_reg__
	out __SP_L__,r28
	pop r29
	pop r28
.LVL18:
	pop r17
	pop r16
	ret
	.cfi_endproc
.LFE32:
	.size	test_potentiometer_read_8_bit, .-test_potentiometer_read_8_bit
	.section	.text.init_potentiometer,"ax",@progbits
.global	init_potentiometer
	.type	init_potentiometer, @function
init_potentiometer:
.LFB33:
	.loc 1 178 0
	.cfi_startproc
/* prologue: function */
/* frame size = 0 */
/* stack size = 0 */
.L__stack_usage = 0
	.loc 1 180 0
	ldi r30,lo8(124)
	ldi r31,0
	ldi r24,lo8(96)
	st Z,r24
	.loc 1 182 0
	ld r24,Z
	ori r24,lo8(7)
	st Z,r24
	.loc 1 185 0
	ldi r30,lo8(122)
	ldi r31,0
	ld r24,Z
	ori r24,lo8(5)
	st Z,r24
	.loc 1 188 0
	ld r24,Z
	ori r24,lo8(-128)
	st Z,r24
	ret
	.cfi_endproc
.LFE33:
	.size	init_potentiometer, .-init_potentiometer
	.section	.rodata.str1.1
.LC4:
	.string	"Stopped"
	.section	.text.move_test,"ax",@progbits
.global	move_test
	.type	move_test, @function
move_test:
.LFB34:
	.loc 1 191 0
	.cfi_startproc
	push r14
.LCFI6:
	.cfi_def_cfa_offset 3
	.cfi_offset 14, -2
	push r15
.LCFI7:
	.cfi_def_cfa_offset 4
	.cfi_offset 15, -3
	push r16
.LCFI8:
	.cfi_def_cfa_offset 5
	.cfi_offset 16, -4
	push r17
.LCFI9:
	.cfi_def_cfa_offset 6
	.cfi_offset 17, -5
	push r28
.LCFI10:
	.cfi_def_cfa_offset 7
	.cfi_offset 28, -6
/* prologue: function */
/* frame size = 0 */
/* stack size = 5 */
.L__stack_usage = 5
.LVL19:
.LBB21:
.LBB22:
	.loc 1 267 0
	sbi 0x4,3
	.loc 1 268 0
	in r24,0xa
	ori r24,lo8(104)
	out 0xa,r24
	.loc 1 269 0
/* #APP */
 ;  269 ".././main.c" 1
	nop
	nop
	
 ;  0 "" 2
.LVL20:
/* #NOAPP */
.LBE22:
.LBE21:
.LBB23:
.LBB24:
	.loc 1 217 0
	ldi r28,lo8(-86)
	out 0x27,r28
	.loc 1 218 0
	out 0x28,r28
	.loc 1 220 0
	ldi r24,lo8(-77)
	mov r14,r24
	mov r15,__zero_reg__
	movw r30,r14
	st Z,r28
	.loc 1 221 0
	ldi r16,lo8(-76)
	ldi r17,0
	movw r30,r16
	st Z,r28
.LVL21:
.LBE24:
.LBE23:
	.loc 1 195 0
	ldi r24,lo8(-80)
	ldi r25,lo8(4)
	call delay_ms
.LVL22:
.LBB25:
.LBB26:
	.loc 1 217 0
	out 0x27,r28
	.loc 1 218 0
	out 0x28,r28
	.loc 1 220 0
	ldi r24,lo8(86)
	movw r30,r14
	st Z,r24
	.loc 1 221 0
	movw r30,r16
	st Z,r24
.LVL23:
.LBE26:
.LBE25:
	.loc 1 198 0
	ldi r24,lo8(126)
	ldi r25,lo8(4)
	call delay_ms
.LVL24:
.LBB27:
.LBB28:
	.loc 1 217 0
	out 0x27,r28
	.loc 1 218 0
	out 0x28,r28
	.loc 1 220 0
	movw r30,r14
	st Z,r28
	.loc 1 221 0
	movw r30,r16
	st Z,r28
.LVL25:
.LBE28:
.LBE27:
	.loc 1 201 0
	ldi r24,lo8(-80)
	ldi r25,lo8(4)
	call delay_ms
.LVL26:
.LBB29:
.LBB30:
	.loc 1 217 0
	ldi r24,lo8(-128)
	out 0x27,r24
	.loc 1 218 0
	out 0x28,r24
	.loc 1 220 0
	movw r30,r14
	st Z,r24
	.loc 1 221 0
	movw r30,r16
	st Z,r24
.LVL27:
.LBE30:
.LBE29:
	.loc 1 204 0
	call clear
.LVL28:
	.loc 1 205 0
	ldi r24,lo8(.LC4)
	ldi r25,hi8(.LC4)
	call print
.LVL29:
	.loc 1 206 0
	ldi r24,lo8(-24)
	ldi r25,lo8(3)
	call delay_ms
.LVL30:
/* epilogue start */
	.loc 1 209 0
	pop r28
	pop r17
	pop r16
	pop r15
	pop r14
.LBB31:
.LBB32:
	jmp set_mottors.part.0
.LVL31:
.LBE32:
.LBE31:
	.cfi_endproc
.LFE34:
	.size	move_test, .-move_test
	.section	.text.set_PWM,"ax",@progbits
.global	set_PWM
	.type	set_PWM, @function
set_PWM:
.LFB35:
	.loc 1 211 0
	.cfi_startproc
.LVL32:
/* prologue: function */
/* frame size = 0 */
/* stack size = 0 */
.L__stack_usage = 0
	.loc 1 217 0
	out 0x27,r24
	.loc 1 218 0
	out 0x28,r24
	.loc 1 220 0
	sts 179,r22
	.loc 1 221 0
	sts 180,r22
	ret
	.cfi_endproc
.LFE35:
	.size	set_PWM, .-set_PWM
	.section	.text.config_fast_pwm,"ax",@progbits
.global	config_fast_pwm
	.type	config_fast_pwm, @function
config_fast_pwm:
.LFB36:
	.loc 1 224 0
	.cfi_startproc
/* prologue: function */
/* frame size = 0 */
/* stack size = 0 */
.L__stack_usage = 0
	.loc 1 236 0
	ldi r24,lo8(-128)
	out 0x27,r24
	.loc 1 237 0
	out 0x28,r24
	.loc 1 239 0
	in r25,0x24
	ori r25,lo8(-77)
	out 0x24,r25
	.loc 1 240 0
	in r25,0x25
	ori r25,lo8(3)
	out 0x25,r25
	.loc 1 244 0
	sts 179,r24
	.loc 1 245 0
	sts 180,r24
	.loc 1 247 0
	ldi r30,lo8(-80)
	ldi r31,0
	ld r24,Z
	ori r24,lo8(-77)
	st Z,r24
	.loc 1 248 0
	ldi r30,lo8(-79)
	ldi r31,0
	ld r24,Z
	ori r24,lo8(3)
	st Z,r24
	ret
	.cfi_endproc
.LFE36:
	.size	config_fast_pwm, .-config_fast_pwm
	.section	.rodata.str1.1
.LC5:
	.string	"mid down"
.LC6:
	.string	"left down"
.LC7:
	.string	"right down"
.LC8:
	.string	"waiting"
	.section	.text.startup.main,"ax",@progbits
.global	main
	.type	main, @function
main:
.LFB29:
	.loc 1 30 0
	.cfi_startproc
/* prologue: function */
/* frame size = 0 */
/* stack size = 0 */
.L__stack_usage = 0
.LBB33:
.LBB34:
	.loc 1 278 0
	in r24,0x5
	ori r24,lo8(50)
	out 0x5,r24
	.loc 1 282 0
	in r24,0xa
	ori r24,lo8(-126)
	out 0xa,r24
.LBE34:
.LBE33:
	.loc 1 32 0
	call config_fast_pwm
.LVL33:
	.loc 1 34 0
	ldi r24,lo8(__c.2502)
	ldi r25,hi8(__c.2502)
	call play_from_program_space
.LVL34:
	.loc 1 37 0
	call move_test
.LVL35:
	.loc 1 38 0
	ldi r24,lo8(-24)
	ldi r25,lo8(3)
	call delay_ms
.LVL36:
	.loc 1 41 0
	call test_potentiometer_read_8_bit
.LVL37:
	.loc 1 42 0
	ldi r24,lo8(-24)
	ldi r25,lo8(3)
	call delay_ms
.LVL38:
	.loc 1 45 0
	ldi r24,lo8(-24)
	ldi r25,lo8(3)
	call delay_ms
.LVL39:
	.loc 1 49 0
	call clear
.LVL40:
	.loc 1 50 0
	ldi r24,lo8(.LC8)
	ldi r25,hi8(.LC8)
	call print
.LVL41:
	.loc 1 48 0
	ldi r24,lo8(.LC8)
	ldi r25,hi8(.LC8)
.LVL42:
	.loc 1 63 0
	sbic 0x3,1
	rjmp .L24
.LVL43:
.L28:
	.loc 1 65 0
	sbi 0xb,1
	.loc 1 66 0
	cbi 0xb,7
	.loc 1 64 0
	ldi r28,lo8(.LC6)
	ldi r29,hi8(.LC6)
.LVL44:
.L25:
	.loc 1 53 0
	cp r24,r28
	cpc r25,r29
	breq .L23
	.loc 1 54 0
	call clear
.LVL45:
	.loc 1 55 0
	movw r24,r28
	call print
.LVL46:
	.loc 1 58 0
	in r24,0xb
	andi r24,lo8(125)
	out 0xb,r24
	.loc 1 59 0
	ldi r24,lo8(50)
	ldi r25,0
	call delay_ms
.LVL47:
.L23:
	.loc 1 75 0
	movw r24,r28
.LVL48:
	.loc 1 63 0
	sbis 0x3,1
	rjmp .L28
.LVL49:
.L24:
	.loc 1 67 0
	sbic 0x3,4
	rjmp .L26
.LVL50:
	.loc 1 69 0
	in r18,0xb
	ori r18,lo8(-126)
	out 0xb,r18
	.loc 1 68 0
	ldi r28,lo8(.LC5)
	ldi r29,hi8(.LC5)
	rjmp .L25
.LVL51:
.L26:
	.loc 1 70 0
	sbic 0x3,5
	rjmp .L27
.LVL52:
	.loc 1 72 0
	sbi 0xb,7
	.loc 1 73 0
	cbi 0xb,1
	.loc 1 71 0
	ldi r28,lo8(.LC7)
	ldi r29,hi8(.LC7)
	rjmp .L25
.LVL53:
.L27:
	.loc 1 75 0
	ldi r28,lo8(.LC8)
	ldi r29,hi8(.LC8)
	rjmp .L25
	.cfi_endproc
.LFE29:
	.size	main, .-main
	.section	.text.set_mottors,"ax",@progbits
.global	set_mottors
	.type	set_mottors, @function
set_mottors:
.LFB37:
	.loc 1 251 0
	.cfi_startproc
.LVL54:
/* prologue: function */
/* frame size = 0 */
/* stack size = 0 */
.L__stack_usage = 0
	.loc 1 252 0
	tst r24
	breq .L31
	.loc 1 267 0
	sbi 0x4,3
	.loc 1 268 0
	in r24,0xa
.LVL55:
	ori r24,lo8(104)
	out 0xa,r24
	.loc 1 269 0
/* #APP */
 ;  269 ".././main.c" 1
	nop
	nop
	
 ;  0 "" 2
/* #NOAPP */
	ret
.LVL56:
.L31:
	jmp set_mottors.part.0
.LVL57:
	.cfi_endproc
.LFE37:
	.size	set_mottors, .-set_mottors
	.section	.text.config_pins,"ax",@progbits
.global	config_pins
	.type	config_pins, @function
config_pins:
.LFB38:
	.loc 1 275 0
	.cfi_startproc
/* prologue: function */
/* frame size = 0 */
/* stack size = 0 */
.L__stack_usage = 0
	.loc 1 278 0
	in r24,0x5
	ori r24,lo8(50)
	out 0x5,r24
	.loc 1 282 0
	in r24,0xa
	ori r24,lo8(-126)
	out 0xa,r24
	ret
	.cfi_endproc
.LFE38:
	.size	config_pins, .-config_pins
	.section	.progmem.data.__c.2502,"a",@progbits
	.type	__c.2502, @object
	.size	__c.2502, 10
__c.2502:
	.string	">g32>>c32"
	.section	.data.w.2154,"aw",@progbits
	.type	w.2154, @object
	.size	w.2154, 1
w.2154:
	.byte	1
	.text
.Letext0:
	.file 3 "e:\\tools\\atmel\\studio\\7.0\\toolchain\\avr8\\avr8-gnu-toolchain\\avr\\include\\stdio.h"
	.file 4 "e:\\tools\\atmel\\studio\\7.0\\toolchain\\avr8\\avr8-gnu-toolchain\\avr\\include\\pololu\\orangutanlcd\\orangutanlcd.h"
	.file 5 "e:\\tools\\atmel\\studio\\7.0\\toolchain\\avr8\\avr8-gnu-toolchain\\avr\\include\\pololu\\orangutantime\\orangutantime.h"
	.file 6 "e:\\tools\\atmel\\studio\\7.0\\toolchain\\avr8\\avr8-gnu-toolchain\\avr\\include\\string.h"
	.file 7 "e:\\tools\\atmel\\studio\\7.0\\toolchain\\avr8\\avr8-gnu-toolchain\\avr\\include\\pololu\\orangutanbuzzer\\orangutanbuzzer.h"
	.file 8 "e:\\tools\\atmel\\studio\\7.0\\toolchain\\avr8\\avr8-gnu-toolchain\\avr\\include\\stdint.h"